; Function Attrs: nounwind uwtable
define internal void @verifybackup_per_wal_range_cb(ptr noundef readonly captures(none) %0, i32 noundef %1, i64 noundef %2, i64 noundef %3) #0 {
  %5 = load ptr, ptr %0, align 8
  %6 = tail call ptr @palloc(i64 noundef 40) #21
  store i32 %1, ptr %6, align 8
  %7 = getelementptr inbounds nuw i8, ptr %6, i64 8
  store i64 %2, ptr %7, align 8
  %8 = getelementptr inbounds nuw i8, ptr %6, i64 16
  store i64 %3, ptr %8, align 8
  %9 = getelementptr inbounds nuw i8, ptr %5, i64 32
  %10 = load ptr, ptr %9, align 8
  %11 = getelementptr inbounds nuw i8, ptr %6, i64 32
  store ptr %10, ptr %11, align 8
  %12 = getelementptr inbounds nuw i8, ptr %6, i64 24
  store ptr null, ptr %12, align 8
  %13 = getelementptr inbounds nuw i8, ptr %5, i64 24
  %14 = load ptr, ptr %13, align 8
  %15 = icmp eq ptr %14, null
  br i1 %15, label %16, label %17

16:                                               ; preds = %4
  store ptr %6, ptr %13, align 8
  br label %20

17:                                               ; preds = %4
  %18 = load ptr, ptr %9, align 8
  %19 = getelementptr inbounds nuw i8, ptr %18, i64 24
  store ptr %6, ptr %19, align 8
  br label %20

20:                                               ; preds = %17, %16
  store ptr %6, ptr %9, align 8
  ret void
}